target datalayout = "e-m:e-p270:32:32-p271:32:32-p272:64:64-i64:64-i128:128-f80:128-n8:16:32:64-S128"
target triple = "x86_64-pc-linux-gnu"

%struct.uv_loop_s = type { ptr, i32, [2 x ptr], %union.anon, ptr, i32, i64, i32, [2 x ptr], [2 x ptr], ptr, i32, i32, [2 x ptr], %union.pthread_mutex_t, %struct.uv_async_s, %union.pthread_rwlock_t, ptr, [2 x ptr], [2 x ptr], [2 x ptr], [2 x ptr], [2 x ptr], ptr, %struct.uv__io_s, i32, %struct.anon, i64, i64, [2 x i32], %struct.uv__io_s, %struct.uv_signal_s, i32, %struct.uv__io_s, ptr, i32 }
%union.anon = type { ptr }
%union.pthread_mutex_t = type { %struct.__pthread_mutex_s }
%struct.__pthread_mutex_s = type { i32, i32, i32, i32, i32, i16, i16, %struct.__pthread_internal_list }
%struct.__pthread_internal_list = type { ptr, ptr }
%struct.uv_async_s = type { ptr, ptr, i32, ptr, [2 x ptr], %union.anon.0, ptr, i32, ptr, [2 x ptr], i32 }
%union.anon.0 = type { [4 x ptr] }
%union.pthread_rwlock_t = type { %struct.__pthread_rwlock_arch_t }
%struct.__pthread_rwlock_arch_t = type { i32, i32, i32, i32, i32, i32, i32, i32, i8, [7 x i8], i64, i32 }
%struct.anon = type { ptr, i32 }
%struct.uv_signal_s = type { ptr, ptr, i32, ptr, [2 x ptr], %union.anon.1, ptr, i32, ptr, i32, %struct.anon.2, i32, i32 }
%union.anon.1 = type { [4 x ptr] }
%struct.anon.2 = type { ptr, ptr, ptr, i32 }
%struct.uv__io_s = type { ptr, [2 x ptr], [2 x ptr], i32, i32, i32 }

; Function Attrs: nounwind uwtable
define dso_local i32 @uv__epoll_init(ptr noundef %0) #0 {
  %2 = alloca i32, align 4
  %3 = alloca ptr, align 8
  %4 = alloca i32, align 4
  %5 = alloca i32, align 4
  store ptr %0, ptr %3, align 8, !tbaa !4
  call void @llvm.lifetime.start.p0(i64 4, ptr %4) #7
  %6 = call i32 @epoll_create1(i32 noundef 524288) #7
  store i32 %6, ptr %4, align 4, !tbaa !9
  %7 = load i32, ptr %4, align 4, !tbaa !9
  %8 = icmp eq i32 %7, -1
  br i1 %8, label %9, label %25

9:                                                ; preds = %1
  %10 = call ptr @__errno_location() #8
  %11 = load i32, ptr %10, align 4, !tbaa !9
  %12 = icmp eq i32 %11, 38
  br i1 %12, label %17, label %13

13:                                               ; preds = %9
  %14 = call ptr @__errno_location() #8
  %15 = load i32, ptr %14, align 4, !tbaa !9
  %16 = icmp eq i32 %15, 22
  br i1 %16, label %17, label %25

17:                                               ; preds = %13, %9
  %18 = call i32 @epoll_create(i32 noundef 256) #7
  store i32 %18, ptr %4, align 4, !tbaa !9
  %19 = load i32, ptr %4, align 4, !tbaa !9
  %20 = icmp ne i32 %19, -1
  br i1 %20, label %21, label %24

21:                                               ; preds = %17
  %22 = load i32, ptr %4, align 4, !tbaa !9
  %23 = call i32 @uv__cloexec(i32 noundef %22, i32 noundef 1)
  br label %24

24:                                               ; preds = %21, %17
  br label %25

25:                                               ; preds = %24, %13, %1
  %26 = load i32, ptr %4, align 4, !tbaa !9
  %27 = load ptr, ptr %3, align 8, !tbaa !4
  %28 = getelementptr inbounds nuw %struct.uv_loop_s, ptr %27, i32 0, i32 7
  store i32 %26, ptr %28, align 8, !tbaa !11
  %29 = load i32, ptr %4, align 4, !tbaa !9
  %30 = icmp eq i32 %29, -1
  br i1 %30, label %31, label %35

31:                                               ; preds = %25
  %32 = call ptr @__errno_location() #8
  %33 = load i32, ptr %32, align 4, !tbaa !9
  %34 = sub nsw i32 0, %33
  store i32 %34, ptr %2, align 4
  store i32 1, ptr %5, align 4
  br label %36

35:                                               ; preds = %25
  store i32 0, ptr %2, align 4
  store i32 1, ptr %5, align 4
  br label %36

36:                                               ; preds = %35, %31
  call void @llvm.lifetime.end.p0(i64 4, ptr %4) #7
  %37 = load i32, ptr %2, align 4
  ret i32 %37
}