; Function Attrs: nounwind uwtable
define dso_local range(i32 -2147483647, -2147483648) i32 @uv__epoll_init(ptr noundef writeonly captures(none) initializes((64, 68)) %0) local_unnamed_addr #0 {
  %2 = tail call i32 @epoll_create1(i32 noundef 524288) #8
  %3 = icmp eq i32 %2, -1
  br i1 %3, label %4, label %11

4:                                                ; preds = %1
  %5 = tail call ptr @__errno_location() #9
  %6 = load i32, ptr %5, align 4, !tbaa !4
  switch i32 %6, label %13 [
    i32 38, label %7
    i32 22, label %7
  ]

7:                                                ; preds = %4, %4
  %8 = tail call i32 @epoll_create(i32 noundef 256) #8
  %.not = icmp eq i32 %8, -1
  br i1 %.not, label %13, label %9

9:                                                ; preds = %7
  %10 = tail call i32 @uv__cloexec(i32 noundef %8, i32 noundef 1) #8
  br label %11

11:                                               ; preds = %9, %1
  %.0 = phi i32 [ %8, %9 ], [ %2, %1 ]
  %12 = getelementptr inbounds nuw i8, ptr %0, i64 64
  store i32 %.0, ptr %12, align 8, !tbaa !8
  br label %17

13:                                               ; preds = %7, %4
  %14 = getelementptr inbounds nuw i8, ptr %0, i64 64
  store i32 -1, ptr %14, align 8, !tbaa !8
  %15 = load i32, ptr %5, align 4, !tbaa !4
  %16 = sub nsw i32 0, %15
  br label %17

17:                                               ; preds = %11, %13
  %.06 = phi i32 [ %16, %13 ], [ 0, %11 ]
  ret i32 %.06
}